Certificate:
    Data:
        Version: 3 (0x2)
        Serial Number: 21 (0x15)
    Signature Algorithm: sha256WithRSAEncryption
        Issuer: C=GB, ST=Staffordshire, L=Wolverhampton, O=Intrbiz Ltd, CN=Intrbiz Root CA
        Validity
            Not Before: Nov 28 00:40:26 2016 GMT
            Not After : Nov 26 00:40:26 2026 GMT
        Subject: C=GB, ST=Staffordshire, O=Intrbiz Ltd, OU=Bergamot Monitoring, CN=bergamot.local
        Subject Public Key Info:
            Public Key Algorithm: rsaEncryption
                Public-Key: (4096 bit)
                Modulus:
                    00:bd:b3:35:30:71:00:54:7d:43:7c:83:99:2d:dd:
                    30:2d:ab:57:ee:79:d6:23:7d:ff:1b:95:e8:8c:70:
                    f4:2d:ee:b2:5e:d6:63:4a:b7:22:aa:d4:f2:48:cb:
                    61:35:a4:01:2d:5b:8a:21:9d:c6:14:d4:ae:e6:94:
                    94:70:33:55:af:33:dd:2d:2f:99:19:d8:4e:51:37:
                    ce:59:01:f6:77:18:8c:96:e2:bc:64:81:5d:ce:57:
                    f4:1e:fc:97:79:b6:0f:1e:ed:ae:cc:70:d3:0c:5f:
                    50:df:9a:0b:26:ba:fa:e0:59:82:c4:e0:e9:cb:a0:
                    5b:6b:25:00:1d:eb:62:9b:ee:d7:6c:6d:06:50:17:
                    4b:18:d8:15:1b:c3:2f:a0:3e:1b:95:e7:b7:e9:1f:
                    30:56:98:47:ab:d5:5b:06:5f:f9:42:db:00:f8:0b:
                    c1:a9:d8:33:26:fe:bd:cf:bf:ff:d4:69:ba:14:82:
                    01:f5:68:1c:89:cb:40:1d:71:2e:36:aa:7f:0c:f0:
                    a4:34:9b:48:a2:d3:cf:b9:d0:b1:bb:2c:b5:75:fd:
                    b2:d0:e1:2b:9e:e6:b9:fd:46:eb:5b:7b:a1:57:d1:
                    e2:01:fb:cc:03:c6:21:8b:53:c7:52:ac:9b:ca:59:
                    54:c0:da:86:97:c9:0f:f0:43:35:ef:10:5c:2d:2b:
                    b1:e7:19:62:3d:30:72:e0:b8:29:25:e6:83:86:15:
                    9c:6a:78:fc:05:2f:c2:1d:07:91:b2:ce:f5:31:12:
                    8e:c9:08:64:39:0d:cd:cf:d2:a0:86:fe:eb:d9:d8:
                    dc:2a:6a:95:b5:e7:de:69:6f:ad:cd:1e:d1:4c:a8:
                    90:43:66:38:0d:e9:1a:fe:c2:66:35:4a:cb:74:2a:
                    a9:7e:23:48:e2:8a:18:47:20:42:ba:91:e8:b6:3c:
                    bf:eb:38:be:4a:f4:e8:90:27:fd:33:55:d2:17:6d:
                    7f:af:d1:52:1a:e9:08:d4:4c:23:63:37:c3:ba:e5:
                    30:87:d6:32:d8:0d:fc:54:66:6f:da:37:c7:95:ac:
                    cf:46:96:0c:ae:b0:83:e3:e2:6e:ca:7a:9e:0e:df:
                    b3:90:90:d8:9e:15:f0:c5:53:9f:75:ee:67:a3:20:
                    13:49:41:bd:3e:45:cd:01:9e:9f:5b:40:ff:82:32:
                    ee:65:96:d4:a7:d2:13:1b:d7:e6:22:7c:b4:39:2b:
                    98:66:95:70:e7:29:1a:9c:ce:5e:47:43:8b:52:be:
                    02:2b:6d:1a:bb:e3:76:2a:d4:5b:d2:25:4b:37:46:
                    c9:54:ec:b1:99:21:40:16:df:0e:00:5f:34:47:37:
                    34:05:80:d9:fe:bc:1a:26:67:81:f9:6d:b1:93:af:
                    a2:da:f9
                Exponent: 65537 (0x10001)
        X509v3 extensions:
            X509v3 Basic Constraints: 
                CA:FALSE
            Netscape Comment: 
                OpenSSL Generated Certificate
            X509v3 Subject Key Identifier: 
                83:6B:98:45:D9:DA:6B:E1:DF:C7:E2:D7:9E:7A:44:A8:D5:F0:C8:71
            X509v3 Authority Key Identifier: 
                keyid:AA:B3:23:B3:0B:57:CF:FF:75:33:93:C7:9F:AA:98:78:55:04:A6:A2

    Signature Algorithm: sha256WithRSAEncryption
         ac:0b:aa:9a:95:ac:79:8d:b8:48:74:31:16:20:74:97:c4:9c:
         73:e4:55:df:5e:b2:16:1b:f2:6f:84:2a:b3:4e:09:e9:cf:80:
         54:37:58:8d:09:a0:32:26:a1:cb:2f:e1:ce:a2:bd:fc:0d:98:
         ef:6e:b9:17:0a:b2:46:a2:72:96:a1:06:18:c4:ac:36:52:e6:
         d9:c9:ec:00:d9:4d:d0:f4:aa:6e:99:fa:54:b0:8c:99:92:b9:
         40:6d:57:ba:50:c6:f7:df:47:4e:7f:8e:11:83:04:6e:a1:be:
         96:e7:24:5f:56:17:3e:53:c9:de:89:57:0e:02:17:4b:69:29:
         fd:d5:7e:d4:6b:2d:d8:db:86:c2:f7:63:40:6a:39:fa:74:a0:
         0d:79:c7:e3:79:29:50:31:4d:bc:f9:34:f5:30:15:e4:dc:36:
         36:c4:74:a9:d4:78:dc:8f:3e:88:73:08:56:0c:90:9d:4f:ef:
         22:17:94:dd:9a:6d:f8:3f:b3:67:b2:46:61:69:05:23:45:ef:
         59:94:bb:3e:a8:ab:b4:81:44:d1:6a:c8:6a:a4:55:a3:0d:b1:
         fa:51:36:c8:fa:74:03:58:24:e0:51:c0:22:c2:b0:80:f7:b9:
         c3:c9:80:f2:2d:c1:80:cb:77:94:67:0c:3a:92:8a:c8:55:35:
         ea:40:da:cf:25:b5:ac:03:9e:86:00:b8:9c:5f:94:01:28:31:
         e2:c5:9a:e4:7b:40:1c:ba:9b:af:b8:a9:48:1f:49:90:23:86:
         2f:75:c4:ac:d8:25:d4:3a:bd:50:d2:a9:03:6f:29:df:64:ad:
         b4:b8:70:17:1c:32:1e:67:7f:4b:79:b2:53:7d:e5:d5:2d:35:
         97:39:a0:43:a6:72:c6:d3:d9:1a:3d:50:f3:d6:8d:7d:69:4b:
         03:64:6a:ec:d8:bc:3b:32:28:f6:71:40:3a:79:79:2f:e1:a4:
         47:0e:38:d7:e7:58:41:d8:bf:10:e4:44:a8:8c:7d:d8:ab:9d:
         33:5e:87:97:7e:ec:9d:5a:c2:f0:9f:ee:64:57:55:a7:cb:80:
         24:b0:4d:7e:d0:49:40:a5:58:9c:28:17:2e:c5:ad:9e:81:ed:
         ae:51:e6:42:80:3e:1e:53:6c:75:fe:b0:9e:fb:c4:fb:2e:7e:
         19:35:88:1c:5d:af:b3:c5:d0:e5:3b:ac:81:e5:2d:0c:c8:49:
         f6:f8:fe:58:c7:eb:0d:61:7c:cb:e4:c2:17:f4:a1:34:52:1c:
         8f:be:70:d3:21:22:ae:32:27:d7:d9:11:7b:9e:0c:e4:65:85:
         a3:4b:f8:ae:cf:00:a3:bd:e7:27:66:de:d0:dc:d2:3f:4b:18:
         8a:37:9a:89:ec:10:91:23
-----BEGIN CERTIFICATE-----
MIIF1TCCA72gAwIBAgIBFTANBgkqhkiG9w0BAQsFADBtMQswCQYDVQQGEwJHQjEW
MBQGA1UECAwNU3RhZmZvcmRzaGlyZTEWMBQGA1UEBwwNV29sdmVyaGFtcHRvbjEU
MBIGA1UECgwLSW50cmJpeiBMdGQxGDAWBgNVBAMMD0ludHJiaXogUm9vdCBDQTAe
Fw0xNjExMjgwMDQwMjZaFw0yNjExMjYwMDQwMjZaMHIxCzAJBgNVBAYTAkdCMRYw
FAYDVQQIDA1TdGFmZm9yZHNoaXJlMRQwEgYDVQQKDAtJbnRyYml6IEx0ZDEcMBoG
A1UECwwTQmVyZ2Ftb3QgTW9uaXRvcmluZzEXMBUGA1UEAwwOYmVyZ2Ftb3QubG9j
YWwwggIiMA0GCSqGSIb3DQEBAQUAA4ICDwAwggIKAoICAQC9szUwcQBUfUN8g5kt
3TAtq1fuedYjff8bleiMcPQt7rJe1mNKtyKq1PJIy2E1pAEtW4ohncYU1K7mlJRw
M1WvM90tL5kZ2E5RN85ZAfZ3GIyW4rxkgV3OV/Qe/Jd5tg8e7a7McNMMX1Dfmgsm
uvrgWYLE4OnLoFtrJQAd62Kb7tdsbQZQF0sY2BUbwy+gPhuV57fpHzBWmEer1VsG
X/lC2wD4C8Gp2DMm/r3Pv//UaboUggH1aByJy0AdcS42qn8M8KQ0m0ii08+50LG7
LLV1/bLQ4Sue5rn9Rutbe6FX0eIB+8wDxiGLU8dSrJvKWVTA2oaXyQ/wQzXvEFwt
K7HnGWI9MHLguCkl5oOGFZxqePwFL8IdB5GyzvUxEo7JCGQ5Dc3P0qCG/uvZ2Nwq
apW1595pb63NHtFMqJBDZjgN6Rr+wmY1Sst0Kql+I0jiihhHIEK6kei2PL/rOL5K
9OiQJ/0zVdIXbX+v0VIa6QjUTCNjN8O65TCH1jLYDfxUZm/aN8eVrM9GlgyusIPj
4m7Kep4O37OQkNieFfDFU5917mejIBNJQb0+Rc0Bnp9bQP+CMu5lltSn0hMb1+Yi
fLQ5K5hmlXDnKRqczl5HQ4tSvgIrbRq743Yq1FvSJUs3RslU7LGZIUAW3w4AXzRH
NzQFgNn+vBomZ4H5bbGTr6La+QIDAQABo3sweTAJBgNVHRMEAjAAMCwGCWCGSAGG
+EIBDQQfFh1PcGVuU1NMIEdlbmVyYXRlZCBDZXJ0aWZpY2F0ZTAdBgNVHQ4EFgQU
g2uYRdnaa+Hfx+LXnnpEqNXwyHEwHwYDVR0jBBgwFoAUqrMjswtXz/91M5PHn6qY
eFUEpqIwDQYJKoZIhvcNAQELBQADggIBAKwLqpqVrHmNuEh0MRYgdJfEnHPkVd9e
shYb8m+EKrNOCenPgFQ3WI0JoDImocsv4c6ivfwNmO9uuRcKskaicpahBhjErDZS
5tnJ7ADZTdD0qm6Z+lSwjJmSuUBtV7pQxvffR05/jhGDBG6hvpbnJF9WFz5Tyd6J
Vw4CF0tpKf3VftRrLdjbhsL3Y0BqOfp0oA15x+N5KVAxTbz5NPUwFeTcNjbEdKnU
eNyPPohzCFYMkJ1P7yIXlN2abfg/s2eyRmFpBSNF71mUuz6oq7SBRNFqyGqkVaMN
sfpRNsj6dANYJOBRwCLCsID3ucPJgPItwYDLd5RnDDqSishVNepA2s8ltawDnoYA
uJxflAEoMeLFmuR7QBy6m6+4qUgfSZAjhi91xKzYJdQ6vVDSqQNvKd9krbS4cBcc
Mh5nf0t5slN95dUtNZc5oEOmcsbT2Ro9UPPWjX1pSwNkauzYvDsyKPZxQDp5eS/h
pEcOONfnWEHYvxDkRKiMfdirnTNeh5d+7J1awvCf7mRXVafLgCSwTX7QSUClWJwo
Fy7FrZ6B7a5R5kKAPh5TbHX+sJ77xPsufhk1iBxdr7PF0OU7rIHlLQzISfb4/ljH
6w1hfMvkwhf0oTRSHI++cNMhIq4yJ9fZEXueDORlhaNL+K7PAKO95ydm3tDc0j9L
GIo3monsEJEj
-----END CERTIFICATE-----
